target datalayout = "e-m:e-p270:32:32-p271:32:32-p272:64:64-i64:64-i128:128-f80:128-n8:16:32:64-S128"
target triple = "x86_64-pc-linux-gnu"

%struct.SDL_GUID = type { [16 x i8] }
%struct.GamepadMapping_t = type { %struct.SDL_GUID, ptr, ptr, i32, ptr }

@s_pSupportedGamepads = internal global ptr null, align 8
@s_gamepadInstanceIDs = internal global ptr null, align 8
@SDL_allowed_gamepads = internal global { ptr, i32, i32, ptr, ptr, i32, i32, ptr, i32, [4 x i8], ptr, i8, [7 x i8] } { ptr @.str.437, i32 0, i32 0, ptr null, ptr null, i32 0, i32 0, ptr null, i32 0, [4 x i8] zeroinitializer, ptr null, i8 0, [7 x i8] zeroinitializer }, align 8
@SDL_ignored_gamepads = internal global { ptr, i32, i32, ptr, ptr, i32, i32, ptr, i32, [4 x i8], ptr, i8, [7 x i8] } { ptr @.str.439, i32 0, i32 0, ptr null, ptr null, i32 0, i32 0, ptr null, i32 0, [4 x i8] zeroinitializer, ptr null, i8 0, [7 x i8] zeroinitializer }, align 8

; Function Attrs: nounwind uwtable
define hidden void @SDL_QuitGamepadMappings() #0 {
  %1 = alloca ptr, align 8
  call void @llvm.lifetime.start.p0(i64 8, ptr %1) #8
  call void @SDL_AssertJoysticksLocked()
  br label %2

2:                                                ; preds = %5, %0
  %3 = load ptr, ptr @s_pSupportedGamepads, align 8
  %4 = icmp ne ptr %3, null
  br i1 %4, label %5, label %17

5:                                                ; preds = %2
  %6 = load ptr, ptr @s_pSupportedGamepads, align 8
  store ptr %6, ptr %1, align 8
  %7 = load ptr, ptr @s_pSupportedGamepads, align 8
  %8 = getelementptr inbounds nuw %struct.GamepadMapping_t, ptr %7, i32 0, i32 4
  %9 = load ptr, ptr %8, align 8
  store ptr %9, ptr @s_pSupportedGamepads, align 8
  %10 = load ptr, ptr %1, align 8
  %11 = getelementptr inbounds nuw %struct.GamepadMapping_t, ptr %10, i32 0, i32 1
  %12 = load ptr, ptr %11, align 8
  call void @SDL_free_REAL(ptr noundef %12)
  %13 = load ptr, ptr %1, align 8
  %14 = getelementptr inbounds nuw %struct.GamepadMapping_t, ptr %13, i32 0, i32 2
  %15 = load ptr, ptr %14, align 8
  call void @SDL_free_REAL(ptr noundef %15)
  %16 = load ptr, ptr %1, align 8
  call void @SDL_free_REAL(ptr noundef %16)
  br label %2, !llvm.loop !19

17:                                               ; preds = %2
  call void @SDL_FreeVIDPIDList(ptr noundef @SDL_allowed_gamepads)
  call void @SDL_FreeVIDPIDList(ptr noundef @SDL_ignored_gamepads)
  %18 = load ptr, ptr @s_gamepadInstanceIDs, align 8
  %19 = icmp ne ptr %18, null
  br i1 %19, label %20, label %22

20:                                               ; preds = %17
  %21 = load ptr, ptr @s_gamepadInstanceIDs, align 8
  call void @SDL_DestroyHashTable(ptr noundef %21)
  store ptr null, ptr @s_gamepadInstanceIDs, align 8
  br label %22

22:                                               ; preds = %20, %17
  call void @llvm.lifetime.end.p0(i64 8, ptr %1) #8
  ret void
}