; Function Attrs: nounwind uwtable
define hidden void @SDL_QuitGamepadMappings() local_unnamed_addr #0 {
  tail call void @SDL_AssertJoysticksLocked() #10
  %1 = load ptr, ptr @s_pSupportedGamepads, align 8
  %.not5 = icmp eq ptr %1, null
  br i1 %.not5, label %._crit_edge, label %.lr.ph

.lr.ph:                                           ; preds = %0, %.lr.ph
  %2 = phi ptr [ %9, %.lr.ph ], [ %1, %0 ]
  %3 = getelementptr inbounds nuw i8, ptr %2, i64 40
  %4 = load ptr, ptr %3, align 8
  store ptr %4, ptr @s_pSupportedGamepads, align 8
  %5 = getelementptr inbounds nuw i8, ptr %2, i64 16
  %6 = load ptr, ptr %5, align 8
  tail call void @SDL_free_REAL(ptr noundef %6) #10
  %7 = getelementptr inbounds nuw i8, ptr %2, i64 24
  %8 = load ptr, ptr %7, align 8
  tail call void @SDL_free_REAL(ptr noundef %8) #10
  tail call void @SDL_free_REAL(ptr noundef nonnull %2) #10
  %9 = load ptr, ptr @s_pSupportedGamepads, align 8
  %.not = icmp eq ptr %9, null
  br i1 %.not, label %._crit_edge, label %.lr.ph, !llvm.loop !19

._crit_edge:                                      ; preds = %.lr.ph, %0
  tail call void @SDL_FreeVIDPIDList(ptr noundef nonnull @SDL_allowed_gamepads) #10
  tail call void @SDL_FreeVIDPIDList(ptr noundef nonnull @SDL_ignored_gamepads) #10
  %10 = load ptr, ptr @s_gamepadInstanceIDs, align 8
  %.not4 = icmp eq ptr %10, null
  br i1 %.not4, label %12, label %11

11:                                               ; preds = %._crit_edge
  tail call void @SDL_DestroyHashTable(ptr noundef nonnull %10) #10
  store ptr null, ptr @s_gamepadInstanceIDs, align 8
  br label %12

12:                                               ; preds = %11, %._crit_edge
  ret void
}